target datalayout = "e-m:e-p270:32:32-p271:32:32-p272:64:64-i64:64-i128:128-f80:128-n8:16:32:64-S128"
target triple = "x86_64-pc-linux-gnu"

%"class.icu_77::Normalizer" = type <{ %"class.icu_77::UObject", ptr, ptr, i32, i32, ptr, i32, i32, %"class.icu_77::UnicodeString", i32, [4 x i8] }>
%"class.icu_77::UObject" = type { ptr }
%"class.icu_77::UnicodeString" = type { %"class.icu_77::Replaceable", %"union.icu_77::UnicodeString::StackBufferOrFields" }
%"class.icu_77::Replaceable" = type { %"class.icu_77::UObject" }
%"union.icu_77::UnicodeString::StackBufferOrFields" = type { %struct.anon.0, [32 x i8] }
%struct.anon.0 = type { i16, i32, i32, ptr }
%"class.icu_77::CharacterIterator" = type { %"class.icu_77::ForwardCharacterIterator", i32, i32, i32, i32 }
%"class.icu_77::ForwardCharacterIterator" = type { %"class.icu_77::UObject" }

; Function Attrs: inlinehint mustprogress nounwind uwtable
define linkonce_odr void @_ZN6icu_7713UnicodeString13setZeroLengthEv(ptr noundef nonnull align 8 dereferenceable(64) %0) #3 comdat align 2 {
  %2 = alloca ptr, align 8
  store ptr %0, ptr %2, align 8, !tbaa !8
  %3 = load ptr, ptr %2, align 8
  %4 = getelementptr inbounds nuw %"class.icu_77::UnicodeString", ptr %3, i32 0, i32 1
  %5 = getelementptr inbounds nuw %struct.anon.0, ptr %4, i32 0, i32 0
  %6 = load i16, ptr %5, align 8, !tbaa !32
  %7 = sext i16 %6 to i32
  %8 = and i32 %7, 31
  %9 = trunc i32 %8 to i16
  store i16 %9, ptr %5, align 8, !tbaa !32
  ret void
}

; Function Attrs: inlinehint mustprogress nounwind uwtable
define linkonce_odr void @_ZN6icu_7713UnicodeString10setToEmptyEv(ptr noundef nonnull align 8 dereferenceable(64) %0) #3 comdat align 2 {
  %2 = alloca ptr, align 8
  store ptr %0, ptr %2, align 8, !tbaa !8
  %3 = load ptr, ptr %2, align 8
  %4 = getelementptr inbounds nuw %"class.icu_77::UnicodeString", ptr %3, i32 0, i32 1
  %5 = getelementptr inbounds nuw %struct.anon.0, ptr %4, i32 0, i32 0
  store i16 2, ptr %5, align 8, !tbaa !32
  ret void
}

; Function Attrs: inlinehint mustprogress nounwind uwtable
define linkonce_odr noundef signext i8 @_ZNK6icu_7713UnicodeString7isBogusEv(ptr noundef nonnull align 8 dereferenceable(64) %0) #3 comdat align 2 {
  %2 = alloca ptr, align 8
  store ptr %0, ptr %2, align 8, !tbaa !8
  %3 = load ptr, ptr %2, align 8
  %4 = getelementptr inbounds nuw %"class.icu_77::UnicodeString", ptr %3, i32 0, i32 1
  %5 = getelementptr inbounds nuw %struct.anon.0, ptr %4, i32 0, i32 0
  %6 = load i16, ptr %5, align 8, !tbaa !32
  %7 = sext i16 %6 to i32
  %8 = and i32 %7, 1
  %9 = trunc i32 %8 to i8
  ret i8 %9
}

; Function Attrs: inlinehint mustprogress uwtable
define linkonce_odr noundef nonnull align 8 dereferenceable(64) ptr @_ZN6icu_7713UnicodeString6removeEv(ptr noundef nonnull align 8 dereferenceable(64) %0) #6 comdat align 2 {
  %2 = alloca ptr, align 8
  store ptr %0, ptr %2, align 8, !tbaa !8
  %3 = load ptr, ptr %2, align 8
  %4 = call noundef signext i8 @_ZNK6icu_7713UnicodeString7isBogusEv(ptr noundef nonnull align 8 dereferenceable(64) %3)
  %5 = icmp ne i8 %4, 0
  br i1 %5, label %6, label %7

6:                                                ; preds = %1
  call void @_ZN6icu_7713UnicodeString10setToEmptyEv(ptr noundef nonnull align 8 dereferenceable(64) %3)
  br label %8

7:                                                ; preds = %1
  call void @_ZN6icu_7713UnicodeString13setZeroLengthEv(ptr noundef nonnull align 8 dereferenceable(64) %3)
  br label %8

8:                                                ; preds = %7, %6
  ret ptr %3
}

; Function Attrs: inlinehint mustprogress nounwind uwtable
define linkonce_odr noundef signext i8 @_ZNK6icu_7713UnicodeString7isEmptyEv(ptr noundef nonnull align 8 dereferenceable(64) %0) #3 comdat align 2 {
  %2 = alloca ptr, align 8
  store ptr %0, ptr %2, align 8, !tbaa !8
  %3 = load ptr, ptr %2, align 8
  %4 = getelementptr inbounds nuw %"class.icu_77::UnicodeString", ptr %3, i32 0, i32 1
  %5 = getelementptr inbounds nuw %struct.anon.0, ptr %4, i32 0, i32 0
  %6 = load i16, ptr %5, align 8, !tbaa !32
  %7 = sext i16 %6 to i32
  %8 = ashr i32 %7, 5
  %9 = icmp eq i32 %8, 0
  %10 = zext i1 %9 to i8
  ret i8 %10
}

; Function Attrs: inlinehint mustprogress nounwind uwtable
define internal noundef signext i8 @_ZL9U_SUCCESS10UErrorCode(i32 noundef %0) #3 {
  %2 = alloca i32, align 4
  store i32 %0, ptr %2, align 4, !tbaa !33
  %3 = load i32, ptr %2, align 4, !tbaa !33
  %4 = icmp sle i32 %3, 0
  %5 = zext i1 %4 to i8
  ret i8 %5
}

; Function Attrs: inlinehint mustprogress nounwind uwtable
define linkonce_odr noundef i32 @_ZNK6icu_7717CharacterIterator8getIndexEv(ptr noundef nonnull align 8 dereferenceable(24) %0) #3 comdat align 2 {
  %2 = alloca ptr, align 8
  store ptr %0, ptr %2, align 8, !tbaa !44
  %3 = load ptr, ptr %2, align 8
  %4 = getelementptr inbounds nuw %"class.icu_77::CharacterIterator", ptr %3, i32 0, i32 2
  %5 = load i32, ptr %4, align 4, !tbaa !53
  ret i32 %5
}

; Function Attrs: mustprogress uwtable
define void @_ZN6icu_7710Normalizer11clearBufferEv(ptr noundef nonnull align 8 dereferenceable(116) %0) #1 align 2 {
  %2 = alloca ptr, align 8
  store ptr %0, ptr %2, align 8, !tbaa !3
  %3 = load ptr, ptr %2, align 8
  %4 = getelementptr inbounds nuw %"class.icu_77::Normalizer", ptr %3, i32 0, i32 8
  %5 = call noundef nonnull align 8 dereferenceable(64) ptr @_ZN6icu_7713UnicodeString6removeEv(ptr noundef nonnull align 8 dereferenceable(64) %4)
  %6 = getelementptr inbounds nuw %"class.icu_77::Normalizer", ptr %3, i32 0, i32 9
  store i32 0, ptr %6, align 8, !tbaa !29
  ret void
}

; Function Attrs: mustprogress uwtable
define noundef signext i8 @_ZN6icu_7710Normalizer13nextNormalizeEv(ptr noundef nonnull align 8 dereferenceable(116) %0) #1 align 2 personality ptr @__gxx_personality_v0 {
  %2 = alloca i8, align 1
  %3 = alloca ptr, align 8
  %4 = alloca %"class.icu_77::UnicodeString", align 8
  %5 = alloca ptr, align 8
  %6 = alloca i32, align 4
  %7 = alloca i32, align 4
  %8 = alloca i32, align 4
  %9 = alloca i32, align 4
  store ptr %0, ptr %3, align 8, !tbaa !3
  %10 = load ptr, ptr %3, align 8
  call void @_ZN6icu_7710Normalizer11clearBufferEv(ptr noundef nonnull align 8 dereferenceable(116) %10)
  %11 = getelementptr inbounds nuw %"class.icu_77::Normalizer", ptr %10, i32 0, i32 7
  %12 = load i32, ptr %11, align 4, !tbaa !28
  %13 = getelementptr inbounds nuw %"class.icu_77::Normalizer", ptr %10, i32 0, i32 6
  store i32 %12, ptr %13, align 8, !tbaa !27
  %14 = getelementptr inbounds nuw %"class.icu_77::Normalizer", ptr %10, i32 0, i32 5
  %15 = load ptr, ptr %14, align 8, !tbaa !26
  %16 = getelementptr inbounds nuw %"class.icu_77::Normalizer", ptr %10, i32 0, i32 7
  %17 = load i32, ptr %16, align 4, !tbaa !28
  %18 = load ptr, ptr %15, align 8, !tbaa !12
  %19 = getelementptr inbounds ptr, ptr %18, i64 15
  %20 = load ptr, ptr %19, align 8
  %21 = call noundef zeroext i16 %20(ptr noundef nonnull align 8 dereferenceable(24) %15, i32 noundef %17)
  %22 = getelementptr inbounds nuw %"class.icu_77::Normalizer", ptr %10, i32 0, i32 5
  %23 = load ptr, ptr %22, align 8, !tbaa !26
  %24 = load ptr, ptr %23, align 8, !tbaa !12
  %25 = getelementptr inbounds ptr, ptr %24, i64 7
  %26 = load ptr, ptr %25, align 8
  %27 = call noundef signext i8 %26(ptr noundef nonnull align 8 dereferenceable(8) %23)
  %28 = icmp ne i8 %27, 0
  br i1 %28, label %30, label %29

29:                                               ; preds = %1
  store i8 0, ptr %2, align 1
  br label %117

30:                                               ; preds = %1
  call void @llvm.lifetime.start.p0(i64 64, ptr %4) #9
  %31 = getelementptr inbounds nuw %"class.icu_77::Normalizer", ptr %10, i32 0, i32 5
  %32 = load ptr, ptr %31, align 8, !tbaa !26
  %33 = load ptr, ptr %32, align 8, !tbaa !12
  %34 = getelementptr inbounds ptr, ptr %33, i64 6
  %35 = load ptr, ptr %34, align 8
  %36 = call noundef i32 %35(ptr noundef nonnull align 8 dereferenceable(8) %32)
  call void @_ZN6icu_7713UnicodeStringC1Ei(ptr noundef nonnull align 8 dereferenceable(64) %4, i32 noundef %36)
  br label %37

37:                                               ; preds = %84, %30
  %38 = getelementptr inbounds nuw %"class.icu_77::Normalizer", ptr %10, i32 0, i32 5
  %39 = load ptr, ptr %38, align 8, !tbaa !26
  %40 = load ptr, ptr %39, align 8, !tbaa !12
  %41 = getelementptr inbounds ptr, ptr %40, i64 7
  %42 = load ptr, ptr %41, align 8
  %43 = invoke noundef signext i8 %42(ptr noundef nonnull align 8 dereferenceable(8) %39)
          to label %44 unwind label %70

44:                                               ; preds = %37
  %45 = icmp ne i8 %43, 0
  br i1 %45, label %46, label %85

46:                                               ; preds = %44
  call void @llvm.lifetime.start.p0(i64 4, ptr %7) #9
  %47 = getelementptr inbounds nuw %"class.icu_77::Normalizer", ptr %10, i32 0, i32 2
  %48 = load ptr, ptr %47, align 8, !tbaa !23
  %49 = getelementptr inbounds nuw %"class.icu_77::Normalizer", ptr %10, i32 0, i32 5
  %50 = load ptr, ptr %49, align 8, !tbaa !26
  %51 = load ptr, ptr %50, align 8, !tbaa !12
  %52 = getelementptr inbounds ptr, ptr %51, i64 6
  %53 = load ptr, ptr %52, align 8
  %54 = invoke noundef i32 %53(ptr noundef nonnull align 8 dereferenceable(8) %50)
          to label %55 unwind label %74

55:                                               ; preds = %46
  store i32 %54, ptr %7, align 4, !tbaa !37
  %56 = load ptr, ptr %48, align 8, !tbaa !12
  %57 = getelementptr inbounds ptr, ptr %56, i64 15
  %58 = load ptr, ptr %57, align 8
  %59 = invoke noundef signext i8 %58(ptr noundef nonnull align 8 dereferenceable(8) %48, i32 noundef %54)
          to label %60 unwind label %74

60:                                               ; preds = %55
  %61 = icmp ne i8 %59, 0
  br i1 %61, label %62, label %78

62:                                               ; preds = %60
  %63 = getelementptr inbounds nuw %"class.icu_77::Normalizer", ptr %10, i32 0, i32 5
  %64 = load ptr, ptr %63, align 8, !tbaa !26
  %65 = load ptr, ptr %64, align 8, !tbaa !12
  %66 = getelementptr inbounds ptr, ptr %65, i64 25
  %67 = load ptr, ptr %66, align 8
  %68 = invoke noundef i32 %67(ptr noundef nonnull align 8 dereferenceable(24) %64, i32 noundef -1, i32 noundef 1)
          to label %69 unwind label %74

69:                                               ; preds = %62
  store i32 3, ptr %8, align 4
  br label %82

70:                                               ; preds = %85, %37
  %71 = landingpad { ptr, i32 }
          cleanup
  %72 = extractvalue { ptr, i32 } %71, 0
  store ptr %72, ptr %5, align 8
  %73 = extractvalue { ptr, i32 } %71, 1
  store i32 %73, ptr %6, align 4
  br label %116

74:                                               ; preds = %78, %62, %55, %46
  %75 = landingpad { ptr, i32 }
          cleanup
  %76 = extractvalue { ptr, i32 } %75, 0
  store ptr %76, ptr %5, align 8
  %77 = extractvalue { ptr, i32 } %75, 1
  store i32 %77, ptr %6, align 4
  call void @llvm.lifetime.end.p0(i64 4, ptr %7) #9
  br label %116

78:                                               ; preds = %60
  %79 = load i32, ptr %7, align 4, !tbaa !37
  %80 = invoke noundef nonnull align 8 dereferenceable(64) ptr @_ZN6icu_7713UnicodeString6appendEi(ptr noundef nonnull align 8 dereferenceable(64) %4, i32 noundef %79)
          to label %81 unwind label %74

81:                                               ; preds = %78
  store i32 0, ptr %8, align 4
  br label %82

82:                                               ; preds = %81, %69
  call void @llvm.lifetime.end.p0(i64 4, ptr %7) #9
  %83 = load i32, ptr %8, align 4
  switch i32 %83, label %124 [
    i32 0, label %84
    i32 3, label %85
  ]

84:                                               ; preds = %82
  br label %37, !llvm.loop !50

85:                                               ; preds = %82, %44
  %86 = getelementptr inbounds nuw %"class.icu_77::Normalizer", ptr %10, i32 0, i32 5
  %87 = load ptr, ptr %86, align 8, !tbaa !26
  %88 = invoke noundef i32 @_ZNK6icu_7717CharacterIterator8getIndexEv(ptr noundef nonnull align 8 dereferenceable(24) %87)
          to label %89 unwind label %70

89:                                               ; preds = %85
  %90 = getelementptr inbounds nuw %"class.icu_77::Normalizer", ptr %10, i32 0, i32 7
  store i32 %88, ptr %90, align 4, !tbaa !28
  call void @llvm.lifetime.start.p0(i64 4, ptr %9) #9
  store i32 0, ptr %9, align 4, !tbaa !33
  %91 = getelementptr inbounds nuw %"class.icu_77::Normalizer", ptr %10, i32 0, i32 2
  %92 = load ptr, ptr %91, align 8, !tbaa !23
  %93 = getelementptr inbounds nuw %"class.icu_77::Normalizer", ptr %10, i32 0, i32 8
  %94 = load ptr, ptr %92, align 8, !tbaa !12
  %95 = getelementptr inbounds ptr, ptr %94, i64 3
  %96 = load ptr, ptr %95, align 8
  %97 = invoke noundef nonnull align 8 dereferenceable(64) ptr %96(ptr noundef nonnull align 8 dereferenceable(8) %92, ptr noundef nonnull align 8 dereferenceable(64) %4, ptr noundef nonnull align 8 dereferenceable(64) %93, ptr noundef nonnull align 4 dereferenceable(4) %9)
          to label %98 unwind label %112

98:                                               ; preds = %89
  %99 = load i32, ptr %9, align 4, !tbaa !33
  %100 = invoke noundef signext i8 @_ZL9U_SUCCESS10UErrorCode(i32 noundef %99)
          to label %101 unwind label %112

101:                                              ; preds = %98
  %102 = icmp ne i8 %100, 0
  br i1 %102, label %103, label %109

103:                                              ; preds = %101
  %104 = getelementptr inbounds nuw %"class.icu_77::Normalizer", ptr %10, i32 0, i32 8
  %105 = invoke noundef signext i8 @_ZNK6icu_7713UnicodeString7isEmptyEv(ptr noundef nonnull align 8 dereferenceable(64) %104)
          to label %106 unwind label %112

106:                                              ; preds = %103
  %107 = icmp ne i8 %105, 0
  %108 = xor i1 %107, true
  br label %109

109:                                              ; preds = %106, %101
  %110 = phi i1 [ false, %101 ], [ %108, %106 ]
  %111 = zext i1 %110 to i8
  store i8 %111, ptr %2, align 1
  store i32 1, ptr %8, align 4
  call void @llvm.lifetime.end.p0(i64 4, ptr %9) #9
  call void @_ZN6icu_7713UnicodeStringD1Ev(ptr noundef nonnull align 8 dereferenceable(64) %4) #9
  call void @llvm.lifetime.end.p0(i64 64, ptr %4) #9
  br label %117

112:                                              ; preds = %103, %98, %89
  %113 = landingpad { ptr, i32 }
          cleanup
  %114 = extractvalue { ptr, i32 } %113, 0
  store ptr %114, ptr %5, align 8
  %115 = extractvalue { ptr, i32 } %113, 1
  store i32 %115, ptr %6, align 4
  call void @llvm.lifetime.end.p0(i64 4, ptr %9) #9
  br label %116

116:                                              ; preds = %112, %74, %70
  call void @_ZN6icu_7713UnicodeStringD1Ev(ptr noundef nonnull align 8 dereferenceable(64) %4) #9
  call void @llvm.lifetime.end.p0(i64 64, ptr %4) #9
  br label %119

117:                                              ; preds = %109, %29
  %118 = load i8, ptr %2, align 1
  ret i8 %118

119:                                              ; preds = %116
  %120 = load ptr, ptr %5, align 8
  %121 = load i32, ptr %6, align 4
  %122 = insertvalue { ptr, i32 } poison, ptr %120, 0
  %123 = insertvalue { ptr, i32 } %122, i32 %121, 1
  resume { ptr, i32 } %123

124:                                              ; preds = %82
  unreachable
}