; Function Attrs: mustprogress uwtable
define noundef signext range(i8 0, 2) i8 @_ZN6icu_7710Normalizer13nextNormalizeEv(ptr noundef nonnull align 8 dereferenceable(116) initializes((40, 44), (112, 116)) %0) local_unnamed_addr #1 align 2 personality ptr @__gxx_personality_v0 {
  %2 = alloca %"class.icu_77::UnicodeString", align 8
  %3 = alloca i32, align 4
  %4 = getelementptr inbounds nuw i8, ptr %0, i64 56
  %5 = load i16, ptr %4, align 8, !tbaa !22
  %6 = and i16 %5, 1
  %.not.i.i = icmp eq i16 %6, 0
  %7 = and i16 %5, 30
  %storemerge.i.i = select i1 %.not.i.i, i16 %7, i16 2
  store i16 %storemerge.i.i, ptr %4, align 8, !tbaa !22
  %8 = getelementptr inbounds nuw i8, ptr %0, i64 112
  store i32 0, ptr %8, align 8, !tbaa !23
  %9 = getelementptr inbounds nuw i8, ptr %0, i64 44
  %10 = load i32, ptr %9, align 4, !tbaa !21
  %11 = getelementptr inbounds nuw i8, ptr %0, i64 40
  store i32 %10, ptr %11, align 8, !tbaa !20
  %12 = getelementptr inbounds nuw i8, ptr %0, i64 32
  %13 = load ptr, ptr %12, align 8, !tbaa !19
  %14 = load ptr, ptr %13, align 8, !tbaa !3
  %15 = getelementptr inbounds nuw i8, ptr %14, i64 120
  %16 = load ptr, ptr %15, align 8
  %17 = tail call noundef zeroext i16 %16(ptr noundef nonnull align 8 dereferenceable(24) %13, i32 noundef %10)
  %18 = load ptr, ptr %12, align 8, !tbaa !19
  %19 = load ptr, ptr %18, align 8, !tbaa !3
  %20 = getelementptr inbounds nuw i8, ptr %19, i64 56
  %21 = load ptr, ptr %20, align 8
  %22 = tail call noundef signext i8 %21(ptr noundef nonnull align 8 dereferenceable(8) %18)
  %.not = icmp eq i8 %22, 0
  br i1 %.not, label %78, label %23

23:                                               ; preds = %1
  call void @llvm.lifetime.start.p0(i64 64, ptr nonnull %2) #10
  %24 = load ptr, ptr %12, align 8, !tbaa !19
  %25 = load ptr, ptr %24, align 8, !tbaa !3
  %26 = getelementptr inbounds nuw i8, ptr %25, i64 48
  %27 = load ptr, ptr %26, align 8
  %28 = tail call noundef i32 %27(ptr noundef nonnull align 8 dereferenceable(8) %24)
  call void @_ZN6icu_7713UnicodeStringC1Ei(ptr noundef nonnull align 8 dereferenceable(64) %2, i32 noundef %28)
  %29 = getelementptr inbounds nuw i8, ptr %0, i64 16
  br label %30

30:                                               ; preds = %58, %23
  %31 = load ptr, ptr %12, align 8, !tbaa !19
  %32 = load ptr, ptr %31, align 8, !tbaa !3
  %33 = getelementptr inbounds nuw i8, ptr %32, i64 56
  %34 = load ptr, ptr %33, align 8
  %35 = invoke noundef signext i8 %34(ptr noundef nonnull align 8 dereferenceable(8) %31)
          to label %36 unwind label %56

36:                                               ; preds = %30
  %.not8 = icmp eq i8 %35, 0
  br i1 %.not8, label %.thread, label %37

37:                                               ; preds = %36
  %38 = load ptr, ptr %29, align 8, !tbaa !26
  %39 = load ptr, ptr %12, align 8, !tbaa !19
  %40 = load ptr, ptr %39, align 8, !tbaa !3
  %41 = getelementptr inbounds nuw i8, ptr %40, i64 48
  %42 = load ptr, ptr %41, align 8
  %43 = invoke noundef i32 %42(ptr noundef nonnull align 8 dereferenceable(8) %39)
          to label %44 unwind label %.loopexit

44:                                               ; preds = %37
  %45 = load ptr, ptr %38, align 8, !tbaa !3
  %46 = getelementptr inbounds nuw i8, ptr %45, i64 120
  %47 = load ptr, ptr %46, align 8
  %48 = invoke noundef signext i8 %47(ptr noundef nonnull align 8 dereferenceable(8) %38, i32 noundef %43)
          to label %49 unwind label %.loopexit

49:                                               ; preds = %44
  %.not9 = icmp eq i8 %48, 0
  br i1 %.not9, label %58, label %50

50:                                               ; preds = %49
  %51 = load ptr, ptr %12, align 8, !tbaa !19
  %52 = load ptr, ptr %51, align 8, !tbaa !3
  %53 = getelementptr inbounds nuw i8, ptr %52, i64 200
  %54 = load ptr, ptr %53, align 8
  %55 = invoke noundef i32 %54(ptr noundef nonnull align 8 dereferenceable(24) %51, i32 noundef -1, i32 noundef 1)
          to label %.thread unwind label %.loopexit.split-lp

56:                                               ; preds = %30
  %57 = landingpad { ptr, i32 }
          cleanup
  br label %77

.loopexit:                                        ; preds = %37, %44, %58
  %lpad.loopexit = landingpad { ptr, i32 }
          cleanup
  br label %77

.loopexit.split-lp:                               ; preds = %50
  %lpad.loopexit.split-lp = landingpad { ptr, i32 }
          cleanup
  br label %77

58:                                               ; preds = %49
  %59 = invoke noundef nonnull align 8 dereferenceable(64) ptr @_ZN6icu_7713UnicodeString6appendEi(ptr noundef nonnull align 8 dereferenceable(64) %2, i32 noundef %43)
          to label %30 unwind label %.loopexit

.thread:                                          ; preds = %36, %50
  %60 = load ptr, ptr %12, align 8, !tbaa !19
  %61 = getelementptr inbounds nuw i8, ptr %60, i64 12
  %62 = load i32, ptr %61, align 4, !tbaa !36
  store i32 %62, ptr %9, align 4, !tbaa !21
  call void @llvm.lifetime.start.p0(i64 4, ptr nonnull %3) #10
  store i32 0, ptr %3, align 4, !tbaa !24
  %63 = load ptr, ptr %29, align 8, !tbaa !26
  %64 = getelementptr inbounds nuw i8, ptr %0, i64 48
  %65 = load ptr, ptr %63, align 8, !tbaa !3
  %66 = getelementptr inbounds nuw i8, ptr %65, i64 24
  %67 = load ptr, ptr %66, align 8
  %68 = invoke noundef nonnull align 8 dereferenceable(64) ptr %67(ptr noundef nonnull align 8 dereferenceable(8) %63, ptr noundef nonnull align 8 dereferenceable(64) %2, ptr noundef nonnull align 8 dereferenceable(64) %64, ptr noundef nonnull align 4 dereferenceable(4) %3)
          to label %69 unwind label %75

69:                                               ; preds = %.thread
  %70 = load i32, ptr %3, align 4, !tbaa !24
  %71 = icmp slt i32 %70, 1
  %72 = load i16, ptr %4, align 8
  %73 = icmp ugt i16 %72, 31
  %narrow = select i1 %71, i1 %73, i1 false
  %74 = zext i1 %narrow to i8
  call void @llvm.lifetime.end.p0(i64 4, ptr nonnull %3) #10
  call void @_ZN6icu_7713UnicodeStringD1Ev(ptr noundef nonnull align 8 dereferenceable(64) %2) #10
  call void @llvm.lifetime.end.p0(i64 64, ptr nonnull %2) #10
  br label %78

75:                                               ; preds = %.thread
  %76 = landingpad { ptr, i32 }
          cleanup
  call void @llvm.lifetime.end.p0(i64 4, ptr nonnull %3) #10
  br label %77

77:                                               ; preds = %.loopexit, %.loopexit.split-lp, %75, %56
  %.pn = phi { ptr, i32 } [ %76, %75 ], [ %57, %56 ], [ %lpad.loopexit, %.loopexit ], [ %lpad.loopexit.split-lp, %.loopexit.split-lp ]
  call void @_ZN6icu_7713UnicodeStringD1Ev(ptr noundef nonnull align 8 dereferenceable(64) %2) #10
  call void @llvm.lifetime.end.p0(i64 64, ptr nonnull %2) #10
  resume { ptr, i32 } %.pn

78:                                               ; preds = %1, %69
  %.05 = phi i8 [ %74, %69 ], [ 0, %1 ]
  ret i8 %.05
}